ARM GAS  C:\Users\Gustav\AppData\Local\Temp\ccUC5mEw.s 			page 1


   1              		.syntax unified
   2              		.cpu cortex-m3
   3              		.fpu softvfp
   4              		.eabi_attribute 20, 1
   5              		.eabi_attribute 21, 1
   6              		.eabi_attribute 23, 3
   7              		.eabi_attribute 24, 1
   8              		.eabi_attribute 25, 1
   9              		.eabi_attribute 26, 1
  10              		.eabi_attribute 30, 1
  11              		.eabi_attribute 34, 1
  12              		.eabi_attribute 18, 4
  13              		.thumb
  14              		.syntax unified
  15              		.file	"main.c"
  16              		.text
  17              	.Ltext0:
  18              		.cfi_sections	.debug_frame
  19              		.section	.text.freq_INT,"ax",%progbits
  20              		.align	2
  21              		.global	freq_INT
  22              		.thumb
  23              		.thumb_func
  24              		.type	freq_INT, %function
  25              	freq_INT:
  26              	.LFB64:
  27              		.file 1 "Color_Sensor.h"
   1:Color_Sensor.h **** // Parts of this design was inspired by a solution from diluc_3555836 
   2:Color_Sensor.h **** // Last visited 2020/12/02
   3:Color_Sensor.h **** // Original post: https://community.cypress.com/thread/43433?start=0
   4:Color_Sensor.h **** 
   5:Color_Sensor.h **** #include "project.h"
   6:Color_Sensor.h **** #include <stdio.h>
   7:Color_Sensor.h **** 
   8:Color_Sensor.h **** uint16 freq = 0;
   9:Color_Sensor.h **** uint8 freqReady = 0;
  10:Color_Sensor.h **** char buf[256];
  11:Color_Sensor.h **** 
  12:Color_Sensor.h **** struct ColorFreq{
  13:Color_Sensor.h ****     uint16 red;
  14:Color_Sensor.h ****     uint16 green;
  15:Color_Sensor.h ****     uint16 blue;
  16:Color_Sensor.h **** }sensorColor;
  17:Color_Sensor.h **** 
  18:Color_Sensor.h **** struct Color{
  19:Color_Sensor.h ****     uint8 red;
  20:Color_Sensor.h ****     uint8 green;
  21:Color_Sensor.h ****     uint8 blue;
  22:Color_Sensor.h **** };
  23:Color_Sensor.h **** 
  24:Color_Sensor.h **** typedef enum
  25:Color_Sensor.h **** {
  26:Color_Sensor.h ****     RED = 0b00,
  27:Color_Sensor.h ****     BLUE = 0b01,
  28:Color_Sensor.h ****     CLEAR = 0b10,
  29:Color_Sensor.h ****     GREEN = 0b11
  30:Color_Sensor.h **** } colorConst;
ARM GAS  C:\Users\Gustav\AppData\Local\Temp\ccUC5mEw.s 			page 2


  31:Color_Sensor.h **** 
  32:Color_Sensor.h **** typedef enum
  33:Color_Sensor.h **** {
  34:Color_Sensor.h ****     POWER_OFF = 0b00,
  35:Color_Sensor.h ****     TWO = 0b01,
  36:Color_Sensor.h ****     TWENTY = 0b10,
  37:Color_Sensor.h ****     ONEHUNDRED = 0b11
  38:Color_Sensor.h **** } freqScale;
  39:Color_Sensor.h **** 
  40:Color_Sensor.h **** CY_ISR_PROTO(freq_INT);
  41:Color_Sensor.h **** 
  42:Color_Sensor.h **** CY_ISR(freq_INT)
  43:Color_Sensor.h **** {
  28              		.loc 1 43 0
  29              		.cfi_startproc
  30              		@ args = 0, pretend = 0, frame = 0
  31              		@ frame_needed = 0, uses_anonymous_args = 0
  32 0000 10B5     		push	{r4, lr}
  33              		.cfi_def_cfa_offset 8
  34              		.cfi_offset 4, -8
  35              		.cfi_offset 14, -4
  44:Color_Sensor.h ****     Color_Counter_Stop();
  36              		.loc 1 44 0
  37 0002 FFF7FEFF 		bl	Color_Counter_Stop
  38              	.LVL0:
  45:Color_Sensor.h ****     freq = Color_Counter_ReadCounter();
  39              		.loc 1 45 0
  40 0006 FFF7FEFF 		bl	Color_Counter_ReadCounter
  41              	.LVL1:
  42 000a 054C     		ldr	r4, .L3
  43 000c 2080     		strh	r0, [r4]	@ movhi
  46:Color_Sensor.h ****     isr_Color_ClearPending();
  44              		.loc 1 46 0
  45 000e FFF7FEFF 		bl	isr_Color_ClearPending
  46              	.LVL2:
  47:Color_Sensor.h ****     Color_Reset_Write(1);
  47              		.loc 1 47 0
  48 0012 0120     		movs	r0, #1
  49 0014 FFF7FEFF 		bl	Color_Reset_Write
  50              	.LVL3:
  48:Color_Sensor.h ****     freqReady = 1;
  51              		.loc 1 48 0
  52 0018 0123     		movs	r3, #1
  53 001a A370     		strb	r3, [r4, #2]
  54 001c 10BD     		pop	{r4, pc}
  55              	.L4:
  56 001e 00BF     		.align	2
  57              	.L3:
  58 0020 00000000 		.word	.LANCHOR0
  59              		.cfi_endproc
  60              	.LFE64:
  61              		.size	freq_INT, .-freq_INT
  62              		.section	.text.Color_Sensor_Start,"ax",%progbits
  63              		.align	2
  64              		.global	Color_Sensor_Start
  65              		.thumb
  66              		.thumb_func
ARM GAS  C:\Users\Gustav\AppData\Local\Temp\ccUC5mEw.s 			page 3


  67              		.type	Color_Sensor_Start, %function
  68              	Color_Sensor_Start:
  69              	.LFB65:
  49:Color_Sensor.h **** }
  50:Color_Sensor.h **** 
  51:Color_Sensor.h **** // ***************************
  52:Color_Sensor.h **** // * Initiat the ISR and set settings pins
  53:Color_Sensor.h **** //      of the color sensor
  54:Color_Sensor.h **** // ****************************
  55:Color_Sensor.h **** void Color_Sensor_Start()
  56:Color_Sensor.h **** {
  70              		.loc 1 56 0
  71              		.cfi_startproc
  72              		@ args = 0, pretend = 0, frame = 0
  73              		@ frame_needed = 0, uses_anonymous_args = 0
  74 0000 08B5     		push	{r3, lr}
  75              		.cfi_def_cfa_offset 8
  76              		.cfi_offset 3, -8
  77              		.cfi_offset 14, -4
  57:Color_Sensor.h ****     isr_Color_StartEx(freq_INT);
  78              		.loc 1 57 0
  79 0002 0348     		ldr	r0, .L7
  80 0004 FFF7FEFF 		bl	isr_Color_StartEx
  81              	.LVL4:
  58:Color_Sensor.h ****     Color_Pin_Freq_Select_Write(TWENTY);
  82              		.loc 1 58 0
  83 0008 0220     		movs	r0, #2
  84 000a FFF7FEFF 		bl	Color_Pin_Freq_Select_Write
  85              	.LVL5:
  86 000e 08BD     		pop	{r3, pc}
  87              	.L8:
  88              		.align	2
  89              	.L7:
  90 0010 00000000 		.word	freq_INT
  91              		.cfi_endproc
  92              	.LFE65:
  93              		.size	Color_Sensor_Start, .-Color_Sensor_Start
  94              		.section	.text.Color_Sensor_Read_Freq,"ax",%progbits
  95              		.align	2
  96              		.global	Color_Sensor_Read_Freq
  97              		.thumb
  98              		.thumb_func
  99              		.type	Color_Sensor_Read_Freq, %function
 100              	Color_Sensor_Read_Freq:
 101              	.LFB66:
  59:Color_Sensor.h **** }
  60:Color_Sensor.h **** 
  61:Color_Sensor.h **** // **********************
  62:Color_Sensor.h **** // * Returns the current freq of
  63:Color_Sensor.h **** //      the chosen color sensor
  64:Color_Sensor.h **** // **********************
  65:Color_Sensor.h **** uint16 Color_Sensor_Read_Freq()
  66:Color_Sensor.h **** {
 102              		.loc 1 66 0
 103              		.cfi_startproc
 104              		@ args = 0, pretend = 0, frame = 0
 105              		@ frame_needed = 0, uses_anonymous_args = 0
ARM GAS  C:\Users\Gustav\AppData\Local\Temp\ccUC5mEw.s 			page 4


 106 0000 08B5     		push	{r3, lr}
 107              		.cfi_def_cfa_offset 8
 108              		.cfi_offset 3, -8
 109              		.cfi_offset 14, -4
  67:Color_Sensor.h ****     // Reset sensor
  68:Color_Sensor.h ****     Color_Reset_Write(1);
 110              		.loc 1 68 0
 111 0002 0120     		movs	r0, #1
 112 0004 FFF7FEFF 		bl	Color_Reset_Write
 113              	.LVL6:
  69:Color_Sensor.h ****     CyDelay(1);
 114              		.loc 1 69 0
 115 0008 0120     		movs	r0, #1
 116 000a FFF7FEFF 		bl	CyDelay
 117              	.LVL7:
  70:Color_Sensor.h ****     Color_Reset_Write(0);
 118              		.loc 1 70 0
 119 000e 0020     		movs	r0, #0
 120 0010 FFF7FEFF 		bl	Color_Reset_Write
 121              	.LVL8:
  71:Color_Sensor.h ****     
  72:Color_Sensor.h ****     Color_Pin_LED_Write(1);
 122              		.loc 1 72 0
 123 0014 0120     		movs	r0, #1
 124 0016 FFF7FEFF 		bl	Color_Pin_LED_Write
 125              	.LVL9:
  73:Color_Sensor.h ****     Color_Counter_Start();
 126              		.loc 1 73 0
 127 001a FFF7FEFF 		bl	Color_Counter_Start
 128              	.LVL10:
  74:Color_Sensor.h ****     Color_PWM_Start();
 129              		.loc 1 74 0
 130 001e FFF7FEFF 		bl	Color_PWM_Start
 131              	.LVL11:
 132              	.L10:
  75:Color_Sensor.h ****     
  76:Color_Sensor.h ****     while(freqReady != 1){}
 133              		.loc 1 76 0 discriminator 1
 134 0022 064B     		ldr	r3, .L12
 135 0024 9B78     		ldrb	r3, [r3, #2]	@ zero_extendqisi2
 136 0026 012B     		cmp	r3, #1
 137 0028 FBD1     		bne	.L10
  77:Color_Sensor.h ****     Color_Pin_LED_Write(0);
 138              		.loc 1 77 0
 139 002a 0020     		movs	r0, #0
 140 002c FFF7FEFF 		bl	Color_Pin_LED_Write
 141              	.LVL12:
  78:Color_Sensor.h ****     freqReady = 0;
 142              		.loc 1 78 0
 143 0030 024B     		ldr	r3, .L12
 144 0032 0022     		movs	r2, #0
 145 0034 9A70     		strb	r2, [r3, #2]
  79:Color_Sensor.h ****     return(freq);
  80:Color_Sensor.h **** }
 146              		.loc 1 80 0
 147 0036 1888     		ldrh	r0, [r3]
 148 0038 08BD     		pop	{r3, pc}
ARM GAS  C:\Users\Gustav\AppData\Local\Temp\ccUC5mEw.s 			page 5


 149              	.L13:
 150 003a 00BF     		.align	2
 151              	.L12:
 152 003c 00000000 		.word	.LANCHOR0
 153              		.cfi_endproc
 154              	.LFE66:
 155              		.size	Color_Sensor_Read_Freq, .-Color_Sensor_Read_Freq
 156              		.section	.text.Color_Sensor_Read_All_Freq,"ax",%progbits
 157              		.align	2
 158              		.global	Color_Sensor_Read_All_Freq
 159              		.thumb
 160              		.thumb_func
 161              		.type	Color_Sensor_Read_All_Freq, %function
 162              	Color_Sensor_Read_All_Freq:
 163              	.LFB67:
  81:Color_Sensor.h **** 
  82:Color_Sensor.h **** // *****************************
  83:Color_Sensor.h **** // * Makes cf into the current color frequency
  84:Color_Sensor.h **** //      of diodes
  85:Color_Sensor.h **** // *******************************
  86:Color_Sensor.h **** void Color_Sensor_Read_All_Freq(struct ColorFreq* cf)
  87:Color_Sensor.h **** {
 164              		.loc 1 87 0
 165              		.cfi_startproc
 166              		@ args = 0, pretend = 0, frame = 0
 167              		@ frame_needed = 0, uses_anonymous_args = 0
 168              	.LVL13:
 169 0000 10B5     		push	{r4, lr}
 170              		.cfi_def_cfa_offset 8
 171              		.cfi_offset 4, -8
 172              		.cfi_offset 14, -4
 173 0002 0446     		mov	r4, r0
  88:Color_Sensor.h ****     Color_Pin_Color_Select_Write(RED);
 174              		.loc 1 88 0
 175 0004 0020     		movs	r0, #0
 176              	.LVL14:
 177 0006 FFF7FEFF 		bl	Color_Pin_Color_Select_Write
 178              	.LVL15:
  89:Color_Sensor.h ****     cf->red = Color_Sensor_Read_Freq();
 179              		.loc 1 89 0
 180 000a FFF7FEFF 		bl	Color_Sensor_Read_Freq
 181              	.LVL16:
 182 000e 2080     		strh	r0, [r4]	@ movhi
  90:Color_Sensor.h ****     
  91:Color_Sensor.h ****     Color_Pin_Color_Select_Write(GREEN);
 183              		.loc 1 91 0
 184 0010 0320     		movs	r0, #3
 185 0012 FFF7FEFF 		bl	Color_Pin_Color_Select_Write
 186              	.LVL17:
  92:Color_Sensor.h ****     cf->green = Color_Sensor_Read_Freq();
 187              		.loc 1 92 0
 188 0016 FFF7FEFF 		bl	Color_Sensor_Read_Freq
 189              	.LVL18:
 190 001a 6080     		strh	r0, [r4, #2]	@ movhi
  93:Color_Sensor.h ****     
  94:Color_Sensor.h ****     Color_Pin_Color_Select_Write(BLUE);
 191              		.loc 1 94 0
ARM GAS  C:\Users\Gustav\AppData\Local\Temp\ccUC5mEw.s 			page 6


 192 001c 0120     		movs	r0, #1
 193 001e FFF7FEFF 		bl	Color_Pin_Color_Select_Write
 194              	.LVL19:
  95:Color_Sensor.h ****     cf->blue = Color_Sensor_Read_Freq();
 195              		.loc 1 95 0
 196 0022 FFF7FEFF 		bl	Color_Sensor_Read_Freq
 197              	.LVL20:
 198 0026 A080     		strh	r0, [r4, #4]	@ movhi
 199 0028 10BD     		pop	{r4, pc}
 200              		.cfi_endproc
 201              	.LFE67:
 202              		.size	Color_Sensor_Read_All_Freq, .-Color_Sensor_Read_All_Freq
 203 002a 00BF     		.section	.text.Color_Sensor_Read_Color,"ax",%progbits
 204              		.align	2
 205              		.global	Color_Sensor_Read_Color
 206              		.thumb
 207              		.thumb_func
 208              		.type	Color_Sensor_Read_Color, %function
 209              	Color_Sensor_Read_Color:
 210              	.LFB68:
  96:Color_Sensor.h **** }
  97:Color_Sensor.h **** 
  98:Color_Sensor.h **** // *************************
  99:Color_Sensor.h **** // * Makes c into the primary color 
 100:Color_Sensor.h **** //      from the box
 101:Color_Sensor.h **** // TODO: Be able to recognize more colors
 102:Color_Sensor.h **** // *************************
 103:Color_Sensor.h **** void Color_Sensor_Read_Color(struct Color* c)
 104:Color_Sensor.h **** {
 211              		.loc 1 104 0
 212              		.cfi_startproc
 213              		@ args = 0, pretend = 0, frame = 8
 214              		@ frame_needed = 0, uses_anonymous_args = 0
 215              	.LVL21:
 216 0000 10B5     		push	{r4, lr}
 217              		.cfi_def_cfa_offset 8
 218              		.cfi_offset 4, -8
 219              		.cfi_offset 14, -4
 220 0002 82B0     		sub	sp, sp, #8
 221              		.cfi_def_cfa_offset 16
 222 0004 0446     		mov	r4, r0
 105:Color_Sensor.h ****     struct ColorFreq cf;
 106:Color_Sensor.h ****     
 107:Color_Sensor.h ****     Color_Sensor_Read_All_Freq(&cf);
 223              		.loc 1 107 0
 224 0006 6846     		mov	r0, sp
 225              	.LVL22:
 226 0008 FFF7FEFF 		bl	Color_Sensor_Read_All_Freq
 227              	.LVL23:
 108:Color_Sensor.h ****     // Decide primary color
 109:Color_Sensor.h ****     if(cf.blue > cf.green && cf.blue > cf.red)
 228              		.loc 1 109 0
 229 000c BDF80430 		ldrh	r3, [sp, #4]
 230 0010 BDF80220 		ldrh	r2, [sp, #2]
 231 0014 9342     		cmp	r3, r2
 232 0016 09D9     		bls	.L17
 233              		.loc 1 109 0 is_stmt 0 discriminator 1
ARM GAS  C:\Users\Gustav\AppData\Local\Temp\ccUC5mEw.s 			page 7


 234 0018 BDF80010 		ldrh	r1, [sp]
 235 001c 8B42     		cmp	r3, r1
 236 001e 05D9     		bls	.L17
 110:Color_Sensor.h ****     {
 111:Color_Sensor.h ****         c->red = 0; 
 237              		.loc 1 111 0 is_stmt 1
 238 0020 0023     		movs	r3, #0
 239 0022 2370     		strb	r3, [r4]
 112:Color_Sensor.h ****         c->green = 0;
 240              		.loc 1 112 0
 241 0024 6370     		strb	r3, [r4, #1]
 113:Color_Sensor.h ****         c->blue = 255;
 242              		.loc 1 113 0
 243 0026 FF23     		movs	r3, #255
 244 0028 A370     		strb	r3, [r4, #2]
 245 002a 16E0     		b	.L16
 246              	.L17:
 114:Color_Sensor.h ****     }
 115:Color_Sensor.h ****     else if(cf.green> cf.blue && cf.green > cf.red)
 247              		.loc 1 115 0
 248 002c 9342     		cmp	r3, r2
 249 002e 09D2     		bcs	.L19
 250              		.loc 1 115 0 is_stmt 0 discriminator 1
 251 0030 BDF80010 		ldrh	r1, [sp]
 252 0034 8A42     		cmp	r2, r1
 253 0036 05D9     		bls	.L19
 116:Color_Sensor.h ****     {
 117:Color_Sensor.h ****         c->red = 0; 
 254              		.loc 1 117 0 is_stmt 1
 255 0038 0023     		movs	r3, #0
 256 003a 2370     		strb	r3, [r4]
 118:Color_Sensor.h ****         c->green = 255;
 257              		.loc 1 118 0
 258 003c FF22     		movs	r2, #255
 259 003e 6270     		strb	r2, [r4, #1]
 119:Color_Sensor.h ****         c->blue = 0;
 260              		.loc 1 119 0
 261 0040 A370     		strb	r3, [r4, #2]
 262 0042 0AE0     		b	.L16
 263              	.L19:
 120:Color_Sensor.h ****     }
 121:Color_Sensor.h ****     else if(cf.red> cf.blue && cf.red > cf.green)
 264              		.loc 1 121 0
 265 0044 BDF80010 		ldrh	r1, [sp]
 266 0048 8B42     		cmp	r3, r1
 267 004a 06D2     		bcs	.L16
 268              		.loc 1 121 0 is_stmt 0 discriminator 1
 269 004c 8A42     		cmp	r2, r1
 270 004e 04D2     		bcs	.L16
 122:Color_Sensor.h ****     {
 123:Color_Sensor.h ****         c->red = 255; 
 271              		.loc 1 123 0 is_stmt 1
 272 0050 FF23     		movs	r3, #255
 273 0052 2370     		strb	r3, [r4]
 124:Color_Sensor.h ****         c->green = 0;
 274              		.loc 1 124 0
 275 0054 0023     		movs	r3, #0
ARM GAS  C:\Users\Gustav\AppData\Local\Temp\ccUC5mEw.s 			page 8


 276 0056 6370     		strb	r3, [r4, #1]
 125:Color_Sensor.h ****         c->blue = 0;
 277              		.loc 1 125 0
 278 0058 A370     		strb	r3, [r4, #2]
 279              	.L16:
 126:Color_Sensor.h ****     }
 127:Color_Sensor.h **** }
 280              		.loc 1 127 0
 281 005a 02B0     		add	sp, sp, #8
 282              		.cfi_def_cfa_offset 8
 283              		@ sp needed
 284 005c 10BD     		pop	{r4, pc}
 285              		.cfi_endproc
 286              	.LFE68:
 287              		.size	Color_Sensor_Read_Color, .-Color_Sensor_Read_Color
 288              		.section	.text.Weight_Sensor_Start,"ax",%progbits
 289              		.align	2
 290              		.global	Weight_Sensor_Start
 291              		.thumb
 292              		.thumb_func
 293              		.type	Weight_Sensor_Start, %function
 294              	Weight_Sensor_Start:
 295              	.LFB69:
 296              		.file 2 "Weight_Sensor.h"
   1:Weight_Sensor.h **** /* ========================================
   2:Weight_Sensor.h ****  *
   3:Weight_Sensor.h ****  * Copyright YOUR COMPANY, THE YEAR
   4:Weight_Sensor.h ****  * All Rights Reserved
   5:Weight_Sensor.h ****  * UNPUBLISHED, LICENSED SOFTWARE.
   6:Weight_Sensor.h ****  *
   7:Weight_Sensor.h ****  * CONFIDENTIAL AND PROPRIETARY INFORMATION
   8:Weight_Sensor.h ****  * WHICH IS THE PROPERTY OF your company.
   9:Weight_Sensor.h ****  *
  10:Weight_Sensor.h ****  * ========================================
  11:Weight_Sensor.h **** */
  12:Weight_Sensor.h **** 
  13:Weight_Sensor.h **** #include "project.h"
  14:Weight_Sensor.h **** #include <stdio.h>
  15:Weight_Sensor.h **** 
  16:Weight_Sensor.h **** const uint16 linearity; // TODO find linearity 
  17:Weight_Sensor.h **** const float offset_err = 0;
  18:Weight_Sensor.h **** const float gram_per_adc = 1;
  19:Weight_Sensor.h **** 
  20:Weight_Sensor.h **** // ********************
  21:Weight_Sensor.h **** // * Initiates the ADC for the 
  22:Weight_Sensor.h **** //      weight cell
  23:Weight_Sensor.h **** // ********************
  24:Weight_Sensor.h **** void Weight_Sensor_Start()
  25:Weight_Sensor.h **** {
 297              		.loc 2 25 0
 298              		.cfi_startproc
 299              		@ args = 0, pretend = 0, frame = 0
 300              		@ frame_needed = 0, uses_anonymous_args = 0
 301 0000 08B5     		push	{r3, lr}
 302              		.cfi_def_cfa_offset 8
 303              		.cfi_offset 3, -8
 304              		.cfi_offset 14, -4
ARM GAS  C:\Users\Gustav\AppData\Local\Temp\ccUC5mEw.s 			page 9


  26:Weight_Sensor.h ****     Weight_ADC_Start();
 305              		.loc 2 26 0
 306 0002 FFF7FEFF 		bl	Weight_ADC_Start
 307              	.LVL24:
  27:Weight_Sensor.h ****     Weight_ADC_StartConvert();
 308              		.loc 2 27 0
 309 0006 FFF7FEFF 		bl	Weight_ADC_StartConvert
 310              	.LVL25:
 311 000a 08BD     		pop	{r3, pc}
 312              		.cfi_endproc
 313              	.LFE69:
 314              		.size	Weight_Sensor_Start, .-Weight_Sensor_Start
 315              		.global	__aeabi_i2f
 316              		.global	__aeabi_fcmpge
 317              		.global	__aeabi_fsub
 318              		.section	.text.Weight_Sensor_ADC_To_Grams,"ax",%progbits
 319              		.align	2
 320              		.global	Weight_Sensor_ADC_To_Grams
 321              		.thumb
 322              		.thumb_func
 323              		.type	Weight_Sensor_ADC_To_Grams, %function
 324              	Weight_Sensor_ADC_To_Grams:
 325              	.LFB70:
  28:Weight_Sensor.h **** }
  29:Weight_Sensor.h **** 
  30:Weight_Sensor.h **** // ******************
  31:Weight_Sensor.h **** // * Utility function
  32:Weight_Sensor.h **** // * Converts adc value to weight in grams
  33:Weight_Sensor.h **** // ******************
  34:Weight_Sensor.h **** float Weight_Sensor_ADC_To_Grams(uint16_t adc)
  35:Weight_Sensor.h **** {
 326              		.loc 2 35 0
 327              		.cfi_startproc
 328              		@ args = 0, pretend = 0, frame = 0
 329              		@ frame_needed = 0, uses_anonymous_args = 0
 330              	.LVL26:
 331 0000 10B5     		push	{r4, lr}
 332              		.cfi_def_cfa_offset 8
 333              		.cfi_offset 4, -8
 334              		.cfi_offset 14, -4
  36:Weight_Sensor.h ****     //Remember this should be calibrated!!!!!!!
  37:Weight_Sensor.h ****     float corrected_output = (adc - offset_err)/gram_per_adc;
 335              		.loc 2 37 0
 336 0002 FFF7FEFF 		bl	__aeabi_i2f
 337              	.LVL27:
 338 0006 0446     		mov	r4, r0
 339              	.LVL28:
  38:Weight_Sensor.h ****     corrected_output = (corrected_output >= 0) ? corrected_output : 0;
 340              		.loc 2 38 0
 341 0008 0021     		movs	r1, #0
 342 000a FFF7FEFF 		bl	__aeabi_fcmpge
 343              	.LVL29:
 344 000e 00B9     		cbnz	r0, .L24
 345 0010 0024     		movs	r4, #0
 346              	.LVL30:
 347              	.L24:
  39:Weight_Sensor.h ****     return (corrected_output) - 3;
ARM GAS  C:\Users\Gustav\AppData\Local\Temp\ccUC5mEw.s 			page 10


 348              		.loc 2 39 0 discriminator 4
 349 0012 0249     		ldr	r1, .L26
 350 0014 2046     		mov	r0, r4
 351 0016 FFF7FEFF 		bl	__aeabi_fsub
 352              	.LVL31:
  40:Weight_Sensor.h **** }
 353              		.loc 2 40 0 discriminator 4
 354 001a 10BD     		pop	{r4, pc}
 355              	.LVL32:
 356              	.L27:
 357              		.align	2
 358              	.L26:
 359 001c 00004040 		.word	1077936128
 360              		.cfi_endproc
 361              	.LFE70:
 362              		.size	Weight_Sensor_ADC_To_Grams, .-Weight_Sensor_ADC_To_Grams
 363              		.global	__aeabi_f2uiz
 364              		.section	.text.Weight_Sensor_Read_Grams,"ax",%progbits
 365              		.align	2
 366              		.global	Weight_Sensor_Read_Grams
 367              		.thumb
 368              		.thumb_func
 369              		.type	Weight_Sensor_Read_Grams, %function
 370              	Weight_Sensor_Read_Grams:
 371              	.LFB71:
  41:Weight_Sensor.h **** 
  42:Weight_Sensor.h **** // ******************
  43:Weight_Sensor.h **** // * Returns the weight currently 
  44:Weight_Sensor.h **** //      on the loadcell in grams
  45:Weight_Sensor.h **** // ******************
  46:Weight_Sensor.h **** uint16 Weight_Sensor_Read_Grams()
  47:Weight_Sensor.h **** {
 372              		.loc 2 47 0
 373              		.cfi_startproc
 374              		@ args = 0, pretend = 0, frame = 0
 375              		@ frame_needed = 0, uses_anonymous_args = 0
 376 0000 08B5     		push	{r3, lr}
 377              		.cfi_def_cfa_offset 8
 378              		.cfi_offset 3, -8
 379              		.cfi_offset 14, -4
 380              	.L29:
  48:Weight_Sensor.h ****     uint16_t result = 0;
  49:Weight_Sensor.h ****     
  50:Weight_Sensor.h ****     while(!Weight_ADC_IsEndConversion(Weight_ADC_WAIT_FOR_RESULT)) {}
 381              		.loc 2 50 0 discriminator 1
 382 0002 0020     		movs	r0, #0
 383 0004 FFF7FEFF 		bl	Weight_ADC_IsEndConversion
 384              	.LVL33:
 385 0008 0028     		cmp	r0, #0
 386 000a FAD0     		beq	.L29
  51:Weight_Sensor.h ****     
  52:Weight_Sensor.h ****     result = Weight_ADC_GetResult16();
 387              		.loc 2 52 0
 388 000c FFF7FEFF 		bl	Weight_ADC_GetResult16
 389              	.LVL34:
  53:Weight_Sensor.h ****     
  54:Weight_Sensor.h ****     return Weight_Sensor_ADC_To_Grams(result);
ARM GAS  C:\Users\Gustav\AppData\Local\Temp\ccUC5mEw.s 			page 11


 390              		.loc 2 54 0
 391 0010 80B2     		uxth	r0, r0
 392 0012 FFF7FEFF 		bl	Weight_Sensor_ADC_To_Grams
 393              	.LVL35:
 394 0016 FFF7FEFF 		bl	__aeabi_f2uiz
 395              	.LVL36:
  55:Weight_Sensor.h **** }
 396              		.loc 2 55 0
 397 001a 80B2     		uxth	r0, r0
 398 001c 08BD     		pop	{r3, pc}
 399              		.cfi_endproc
 400              	.LFE71:
 401              		.size	Weight_Sensor_Read_Grams, .-Weight_Sensor_Read_Grams
 402              		.global	__aeabi_fadd
 403              		.global	__aeabi_fdiv
 404 001e 00BF     		.section	.text.Weight_Sensor_Read,"ax",%progbits
 405              		.align	2
 406              		.global	Weight_Sensor_Read
 407              		.thumb
 408              		.thumb_func
 409              		.type	Weight_Sensor_Read, %function
 410              	Weight_Sensor_Read:
 411              	.LFB72:
  56:Weight_Sensor.h **** 
  57:Weight_Sensor.h **** // ******************
  58:Weight_Sensor.h **** // * Returns the final weight in grams
  59:Weight_Sensor.h **** // * Takes the average of 10 readings from the scale
  60:Weight_Sensor.h **** // ******************
  61:Weight_Sensor.h **** uint16 Weight_Sensor_Read()
  62:Weight_Sensor.h **** {
 412              		.loc 2 62 0
 413              		.cfi_startproc
 414              		@ args = 0, pretend = 0, frame = 0
 415              		@ frame_needed = 0, uses_anonymous_args = 0
 416 0000 38B5     		push	{r3, r4, r5, lr}
 417              		.cfi_def_cfa_offset 16
 418              		.cfi_offset 3, -16
 419              		.cfi_offset 4, -12
 420              		.cfi_offset 5, -8
 421              		.cfi_offset 14, -4
 422              	.LVL37:
 423              	.LBB2:
  63:Weight_Sensor.h ****     float sum = 0;
  64:Weight_Sensor.h ****     for(int i = 0; i < 10; i++)
 424              		.loc 2 64 0
 425 0002 0024     		movs	r4, #0
 426              	.LBE2:
  63:Weight_Sensor.h ****     float sum = 0;
 427              		.loc 2 63 0
 428 0004 0025     		movs	r5, #0
 429              	.LBB3:
 430              		.loc 2 64 0
 431 0006 09E0     		b	.L32
 432              	.LVL38:
 433              	.L33:
  65:Weight_Sensor.h ****         sum += Weight_Sensor_Read_Grams();
 434              		.loc 2 65 0 discriminator 3
ARM GAS  C:\Users\Gustav\AppData\Local\Temp\ccUC5mEw.s 			page 12


 435 0008 FFF7FEFF 		bl	Weight_Sensor_Read_Grams
 436              	.LVL39:
 437 000c FFF7FEFF 		bl	__aeabi_i2f
 438              	.LVL40:
 439 0010 0146     		mov	r1, r0
 440 0012 2846     		mov	r0, r5
 441 0014 FFF7FEFF 		bl	__aeabi_fadd
 442              	.LVL41:
 443 0018 0546     		mov	r5, r0
 444              	.LVL42:
  64:Weight_Sensor.h ****         sum += Weight_Sensor_Read_Grams();
 445              		.loc 2 64 0 discriminator 3
 446 001a 0134     		adds	r4, r4, #1
 447              	.LVL43:
 448              	.L32:
  64:Weight_Sensor.h ****         sum += Weight_Sensor_Read_Grams();
 449              		.loc 2 64 0 is_stmt 0 discriminator 1
 450 001c 092C     		cmp	r4, #9
 451 001e F3DD     		ble	.L33
 452              	.LBE3:
  66:Weight_Sensor.h ****         
  67:Weight_Sensor.h ****     uint16 result = sum/10;
 453              		.loc 2 67 0 is_stmt 1
 454 0020 0349     		ldr	r1, .L35
 455 0022 2846     		mov	r0, r5
 456 0024 FFF7FEFF 		bl	__aeabi_fdiv
 457              	.LVL44:
 458 0028 FFF7FEFF 		bl	__aeabi_f2uiz
 459              	.LVL45:
  68:Weight_Sensor.h ****         
  69:Weight_Sensor.h ****     return result;
  70:Weight_Sensor.h **** }...
 460              		.loc 2 70 0
 461 002c 80B2     		uxth	r0, r0
 462 002e 38BD     		pop	{r3, r4, r5, pc}
 463              	.LVL46:
 464              	.L36:
 465              		.align	2
 466              	.L35:
 467 0030 00002041 		.word	1092616192
 468              		.cfi_endproc
 469              	.LFE72:
 470              		.size	Weight_Sensor_Read, .-Weight_Sensor_Read
 471              		.section	.text.Actuator_Extend,"ax",%progbits
 472              		.align	2
 473              		.global	Actuator_Extend
 474              		.thumb
 475              		.thumb_func
 476              		.type	Actuator_Extend, %function
 477              	Actuator_Extend:
 478              	.LFB73:
 479              		.file 3 "Actuator.h"
   1:Actuator.h    **** /* ========================================
   2:Actuator.h    ****  *
   3:Actuator.h    ****  * Copyright YOUR COMPANY, THE YEAR
   4:Actuator.h    ****  * All Rights Reserved
   5:Actuator.h    ****  * UNPUBLISHED, LICENSED SOFTWARE.
ARM GAS  C:\Users\Gustav\AppData\Local\Temp\ccUC5mEw.s 			page 13


   6:Actuator.h    ****  *
   7:Actuator.h    ****  * CONFIDENTIAL AND PROPRIETARY INFORMATION
   8:Actuator.h    ****  * WHICH IS THE PROPERTY OF your company.
   9:Actuator.h    ****  *
  10:Actuator.h    ****  * ========================================
  11:Actuator.h    **** */
  12:Actuator.h    **** 
  13:Actuator.h    **** #include "project.h"
  14:Actuator.h    **** 
  15:Actuator.h    **** enum Actuator_dir{
  16:Actuator.h    ****     IN1 = 1,
  17:Actuator.h    ****     IN2 = 0,
  18:Actuator.h    **** };
  19:Actuator.h    **** 
  20:Actuator.h    **** const uint16 ACTUATOR_DELAY = 3000;  // ms delay
  21:Actuator.h    **** 
  22:Actuator.h    **** // ******************
  23:Actuator.h    **** // * Extends the actuator and turns it
  24:Actuator.h    **** //      off after a period
  25:Actuator.h    **** // ******************
  26:Actuator.h    **** void Actuator_Extend()
  27:Actuator.h    **** {
 480              		.loc 3 27 0
 481              		.cfi_startproc
 482              		@ args = 0, pretend = 0, frame = 0
 483              		@ frame_needed = 0, uses_anonymous_args = 0
 484 0000 08B5     		push	{r3, lr}
 485              		.cfi_def_cfa_offset 8
 486              		.cfi_offset 3, -8
 487              		.cfi_offset 14, -4
  28:Actuator.h    ****     // Set direction
  29:Actuator.h    ****     Actuator_Dir_Write(IN1);
 488              		.loc 3 29 0
 489 0002 0120     		movs	r0, #1
 490 0004 FFF7FEFF 		bl	Actuator_Dir_Write
 491              	.LVL47:
  30:Actuator.h    ****     Actuator_PWM_Start();
 492              		.loc 3 30 0
 493 0008 FFF7FEFF 		bl	Actuator_PWM_Start
 494              	.LVL48:
  31:Actuator.h    ****     
  32:Actuator.h    ****     // Wait till extended
  33:Actuator.h    ****     // TODO bad implemenentation. Use pins on actuator
  34:Actuator.h    ****     CyDelay(ACTUATOR_DELAY);
 495              		.loc 3 34 0
 496 000c 40F6B830 		movw	r0, #3000
 497 0010 FFF7FEFF 		bl	CyDelay
 498              	.LVL49:
  35:Actuator.h    ****     Actuator_PWM_Stop();
 499              		.loc 3 35 0
 500 0014 FFF7FEFF 		bl	Actuator_PWM_Stop
 501              	.LVL50:
 502 0018 08BD     		pop	{r3, pc}
 503              		.cfi_endproc
 504              	.LFE73:
 505              		.size	Actuator_Extend, .-Actuator_Extend
 506 001a 00BF     		.section	.text.Actuator_Retract,"ax",%progbits
ARM GAS  C:\Users\Gustav\AppData\Local\Temp\ccUC5mEw.s 			page 14


 507              		.align	2
 508              		.global	Actuator_Retract
 509              		.thumb
 510              		.thumb_func
 511              		.type	Actuator_Retract, %function
 512              	Actuator_Retract:
 513              	.LFB74:
  36:Actuator.h    **** }
  37:Actuator.h    **** 
  38:Actuator.h    **** // ******************
  39:Actuator.h    **** // * Retracts the actuator and turns it
  40:Actuator.h    **** //      off after a period
  41:Actuator.h    **** // ******************
  42:Actuator.h    **** void Actuator_Retract()
  43:Actuator.h    **** {
 514              		.loc 3 43 0
 515              		.cfi_startproc
 516              		@ args = 0, pretend = 0, frame = 0
 517              		@ frame_needed = 0, uses_anonymous_args = 0
 518 0000 08B5     		push	{r3, lr}
 519              		.cfi_def_cfa_offset 8
 520              		.cfi_offset 3, -8
 521              		.cfi_offset 14, -4
  44:Actuator.h    ****     // Set direction
  45:Actuator.h    ****     Actuator_Dir_Write(IN2);
 522              		.loc 3 45 0
 523 0002 0020     		movs	r0, #0
 524 0004 FFF7FEFF 		bl	Actuator_Dir_Write
 525              	.LVL51:
  46:Actuator.h    ****     Actuator_PWM_Start();
 526              		.loc 3 46 0
 527 0008 FFF7FEFF 		bl	Actuator_PWM_Start
 528              	.LVL52:
  47:Actuator.h    ****     
  48:Actuator.h    ****     // Wait till extended
  49:Actuator.h    ****     // TODO bad implemenentation. Use pins on actuator
  50:Actuator.h    ****     CyDelay(ACTUATOR_DELAY);
 529              		.loc 3 50 0
 530 000c 40F6B830 		movw	r0, #3000
 531 0010 FFF7FEFF 		bl	CyDelay
 532              	.LVL53:
  51:Actuator.h    ****     Actuator_PWM_Stop();
 533              		.loc 3 51 0
 534 0014 FFF7FEFF 		bl	Actuator_PWM_Stop
 535              	.LVL54:
 536 0018 08BD     		pop	{r3, pc}
 537              		.cfi_endproc
 538              	.LFE74:
 539              		.size	Actuator_Retract, .-Actuator_Retract
 540 001a 00BF     		.section	.text.Database_Interface_Start,"ax",%progbits
 541              		.align	2
 542              		.global	Database_Interface_Start
 543              		.thumb
 544              		.thumb_func
 545              		.type	Database_Interface_Start, %function
 546              	Database_Interface_Start:
 547              	.LFB75:
ARM GAS  C:\Users\Gustav\AppData\Local\Temp\ccUC5mEw.s 			page 15


 548              		.file 4 "Database_Interface.h"
   1:Database_Interface.h **** #include "Box.h"
   2:Database_Interface.h **** #include "stdio.h"
   3:Database_Interface.h **** #include "project.h"
   4:Database_Interface.h **** 
   5:Database_Interface.h **** 
   6:Database_Interface.h **** void Database_Interface_Start()
   7:Database_Interface.h **** {
 549              		.loc 4 7 0
 550              		.cfi_startproc
 551              		@ args = 0, pretend = 0, frame = 0
 552              		@ frame_needed = 0, uses_anonymous_args = 0
 553 0000 08B5     		push	{r3, lr}
 554              		.cfi_def_cfa_offset 8
 555              		.cfi_offset 3, -8
 556              		.cfi_offset 14, -4
   8:Database_Interface.h ****     RPI_UART_Start();
 557              		.loc 4 8 0
 558 0002 FFF7FEFF 		bl	RPI_UART_Start
 559              	.LVL55:
 560 0006 08BD     		pop	{r3, pc}
 561              		.cfi_endproc
 562              	.LFE75:
 563              		.size	Database_Interface_Start, .-Database_Interface_Start
 564              		.section	.text.Database_Interface_Send,"ax",%progbits
 565              		.align	2
 566              		.global	Database_Interface_Send
 567              		.thumb
 568              		.thumb_func
 569              		.type	Database_Interface_Send, %function
 570              	Database_Interface_Send:
 571              	.LFB76:
   9:Database_Interface.h **** }
  10:Database_Interface.h **** 
  11:Database_Interface.h **** void Database_Interface_Send(struct Box* d)
  12:Database_Interface.h **** {
 572              		.loc 4 12 0
 573              		.cfi_startproc
 574              		@ args = 0, pretend = 0, frame = 104
 575              		@ frame_needed = 0, uses_anonymous_args = 0
 576              	.LVL56:
 577 0000 10B5     		push	{r4, lr}
 578              		.cfi_def_cfa_offset 8
 579              		.cfi_offset 4, -8
 580              		.cfi_offset 14, -4
 581 0002 9EB0     		sub	sp, sp, #120
 582              		.cfi_def_cfa_offset 128
 583 0004 0446     		mov	r4, r0
  13:Database_Interface.h ****     char buf[100] = {'\0'};
 584              		.loc 4 13 0
 585 0006 6422     		movs	r2, #100
 586 0008 0021     		movs	r1, #0
 587 000a 05A8     		add	r0, sp, #20
 588              	.LVL57:
 589 000c FFF7FEFF 		bl	memset
 590              	.LVL58:
  14:Database_Interface.h ****     
ARM GAS  C:\Users\Gustav\AppData\Local\Temp\ccUC5mEw.s 			page 16


  15:Database_Interface.h ****     int len = sprintf(buf, "%i %i %i %i %i", d->color[0], d->color[1], d->color[2], d->weight, d->s
 591              		.loc 4 15 0
 592 0010 6268     		ldr	r2, [r4, #4]
 593 0012 A368     		ldr	r3, [r4, #8]
 594 0014 E168     		ldr	r1, [r4, #12]
 595 0016 2069     		ldr	r0, [r4, #16]
 596 0018 6469     		ldr	r4, [r4, #20]
 597              	.LVL59:
 598 001a 0294     		str	r4, [sp, #8]
 599 001c 0190     		str	r0, [sp, #4]
 600 001e 0091     		str	r1, [sp]
 601 0020 0649     		ldr	r1, .L45
 602 0022 05A8     		add	r0, sp, #20
 603 0024 FFF7FEFF 		bl	sprintf
 604              	.LVL60:
  16:Database_Interface.h ****     buf[len] = '\n';
 605              		.loc 4 16 0
 606 0028 1EAB     		add	r3, sp, #120
 607 002a 1844     		add	r0, r0, r3
 608              	.LVL61:
 609 002c 0A23     		movs	r3, #10
 610 002e 00F8643C 		strb	r3, [r0, #-100]
  17:Database_Interface.h ****     
  18:Database_Interface.h ****     RPI_UART_PutString(buf);
 611              		.loc 4 18 0
 612 0032 05A8     		add	r0, sp, #20
 613 0034 FFF7FEFF 		bl	RPI_UART_PutString
 614              	.LVL62:
  19:Database_Interface.h **** }...
 615              		.loc 4 19 0
 616 0038 1EB0     		add	sp, sp, #120
 617              		.cfi_def_cfa_offset 8
 618              		@ sp needed
 619 003a 10BD     		pop	{r4, pc}
 620              	.L46:
 621              		.align	2
 622              	.L45:
 623 003c 00000000 		.word	.LC0
 624              		.cfi_endproc
 625              	.LFE76:
 626              		.size	Database_Interface_Send, .-Database_Interface_Send
 627              		.section	.text.Belt_Motor_Start,"ax",%progbits
 628              		.align	2
 629              		.global	Belt_Motor_Start
 630              		.thumb
 631              		.thumb_func
 632              		.type	Belt_Motor_Start, %function
 633              	Belt_Motor_Start:
 634              	.LFB77:
 635              		.file 5 "Belt_Motor.h"
   1:Belt_Motor.h  **** /* ========================================
   2:Belt_Motor.h  ****  *
   3:Belt_Motor.h  ****  * Copyright YOUR COMPANY, THE YEAR
   4:Belt_Motor.h  ****  * All Rights Reserved
   5:Belt_Motor.h  ****  * UNPUBLISHED, LICENSED SOFTWARE.
   6:Belt_Motor.h  ****  *
   7:Belt_Motor.h  ****  * CONFIDENTIAL AND PROPRIETARY INFORMATION
ARM GAS  C:\Users\Gustav\AppData\Local\Temp\ccUC5mEw.s 			page 17


   8:Belt_Motor.h  ****  * WHICH IS THE PROPERTY OF your company.
   9:Belt_Motor.h  ****  *
  10:Belt_Motor.h  ****  * ========================================
  11:Belt_Motor.h  **** */
  12:Belt_Motor.h  **** 
  13:Belt_Motor.h  **** #include "project.h"
  14:Belt_Motor.h  **** 
  15:Belt_Motor.h  **** uint16 BELT_SPEED_MAX;
  16:Belt_Motor.h  **** const uint16 BELT_SPEED_OFF = 0;
  17:Belt_Motor.h  **** int BELT_SPEED_NORMAL;
  18:Belt_Motor.h  **** 
  19:Belt_Motor.h  **** void Belt_Motor_Start()
  20:Belt_Motor.h  **** {
 636              		.loc 5 20 0
 637              		.cfi_startproc
 638              		@ args = 0, pretend = 0, frame = 0
 639              		@ frame_needed = 0, uses_anonymous_args = 0
 640 0000 08B5     		push	{r3, lr}
 641              		.cfi_def_cfa_offset 8
 642              		.cfi_offset 3, -8
 643              		.cfi_offset 14, -4
  21:Belt_Motor.h  ****     Motor_PWM_Start();
 644              		.loc 5 21 0
 645 0002 FFF7FEFF 		bl	Motor_PWM_Start
 646              	.LVL63:
  22:Belt_Motor.h  ****     BELT_SPEED_MAX = Motor_PWM_ReadPeriod();
 647              		.loc 5 22 0
 648 0006 FFF7FEFF 		bl	Motor_PWM_ReadPeriod
 649              	.LVL64:
 650 000a 014B     		ldr	r3, .L49
 651 000c 1880     		strh	r0, [r3]	@ movhi
 652 000e 08BD     		pop	{r3, pc}
 653              	.L50:
 654              		.align	2
 655              	.L49:
 656 0010 00000000 		.word	BELT_SPEED_MAX
 657              		.cfi_endproc
 658              	.LFE77:
 659              		.size	Belt_Motor_Start, .-Belt_Motor_Start
 660              		.section	.text.Belt_Motor_Set_Speed,"ax",%progbits
 661              		.align	2
 662              		.global	Belt_Motor_Set_Speed
 663              		.thumb
 664              		.thumb_func
 665              		.type	Belt_Motor_Set_Speed, %function
 666              	Belt_Motor_Set_Speed:
 667              	.LFB78:
  23:Belt_Motor.h  **** }
  24:Belt_Motor.h  **** 
  25:Belt_Motor.h  **** void Belt_Motor_Set_Speed(uint8 speed)
  26:Belt_Motor.h  **** {
 668              		.loc 5 26 0
 669              		.cfi_startproc
 670              		@ args = 0, pretend = 0, frame = 0
 671              		@ frame_needed = 0, uses_anonymous_args = 0
 672              	.LVL65:
 673 0000 08B5     		push	{r3, lr}
ARM GAS  C:\Users\Gustav\AppData\Local\Temp\ccUC5mEw.s 			page 18


 674              		.cfi_def_cfa_offset 8
 675              		.cfi_offset 3, -8
 676              		.cfi_offset 14, -4
  27:Belt_Motor.h  ****     if (speed < BELT_SPEED_MAX && speed > BELT_SPEED_OFF) 
 677              		.loc 5 27 0
 678 0002 82B2     		uxth	r2, r0
 679 0004 034B     		ldr	r3, .L54
 680 0006 1B88     		ldrh	r3, [r3]
 681 0008 9A42     		cmp	r2, r3
 682 000a 02D2     		bcs	.L51
 683              		.loc 5 27 0 is_stmt 0 discriminator 1
 684 000c 08B1     		cbz	r0, .L51
  28:Belt_Motor.h  ****     {
  29:Belt_Motor.h  ****         Motor_PWM_WriteCompare(speed);
 685              		.loc 5 29 0 is_stmt 1
 686 000e FFF7FEFF 		bl	Motor_PWM_WriteCompare
 687              	.LVL66:
 688              	.L51:
 689 0012 08BD     		pop	{r3, pc}
 690              	.L55:
 691              		.align	2
 692              	.L54:
 693 0014 00000000 		.word	BELT_SPEED_MAX
 694              		.cfi_endproc
 695              	.LFE78:
 696              		.size	Belt_Motor_Set_Speed, .-Belt_Motor_Set_Speed
 697              		.section	.text.createQueue,"ax",%progbits
 698              		.align	2
 699              		.global	createQueue
 700              		.thumb
 701              		.thumb_func
 702              		.type	createQueue, %function
 703              	createQueue:
 704              	.LFB79:
 705              		.file 6 "Queue.h"
   1:Queue.h       **** //=======================================
   2:Queue.h       **** // This implementation is taken directly from:
   3:Queue.h       **** // https://www.geeksforgeeks.org/queue-set-1introduction-and-array-implementation/
   4:Queue.h       **** // Last visited: 2020 12 11
   5:Queue.h       **** // Minor tweaks implementet by: GustavNK
   6:Queue.h       **** // ======================================
   7:Queue.h       **** 
   8:Queue.h       **** // C program for array implementation of queue 
   9:Queue.h       **** #include <limits.h> 
  10:Queue.h       **** #include <stdio.h> 
  11:Queue.h       **** #include <stdlib.h> 
  12:Queue.h       ****   
  13:Queue.h       **** // A structure to represent a queue 
  14:Queue.h       **** struct Queue { 
  15:Queue.h       ****     int front, rear, size; 
  16:Queue.h       ****     unsigned capacity; 
  17:Queue.h       ****     int* array; 
  18:Queue.h       **** }; 
  19:Queue.h       ****   
  20:Queue.h       **** // function to create a queue 
  21:Queue.h       **** // of given capacity. 
  22:Queue.h       **** // It initializes size of queue as 0 
ARM GAS  C:\Users\Gustav\AppData\Local\Temp\ccUC5mEw.s 			page 19


  23:Queue.h       **** struct Queue* createQueue(unsigned capacity) 
  24:Queue.h       **** { 
 706              		.loc 6 24 0
 707              		.cfi_startproc
 708              		@ args = 0, pretend = 0, frame = 0
 709              		@ frame_needed = 0, uses_anonymous_args = 0
 710              	.LVL67:
 711 0000 38B5     		push	{r3, r4, r5, lr}
 712              		.cfi_def_cfa_offset 16
 713              		.cfi_offset 3, -16
 714              		.cfi_offset 4, -12
 715              		.cfi_offset 5, -8
 716              		.cfi_offset 14, -4
 717 0002 0546     		mov	r5, r0
  25:Queue.h       ****     struct Queue* queue = (struct Queue*)malloc( 
 718              		.loc 6 25 0
 719 0004 1420     		movs	r0, #20
 720              	.LVL68:
 721 0006 FFF7FEFF 		bl	malloc
 722              	.LVL69:
 723 000a 0446     		mov	r4, r0
 724              	.LVL70:
  26:Queue.h       ****         sizeof(struct Queue)); 
  27:Queue.h       ****     queue->capacity = capacity; 
 725              		.loc 6 27 0
 726 000c C560     		str	r5, [r0, #12]
  28:Queue.h       ****     queue->front = queue->size = 0; 
 727              		.loc 6 28 0
 728 000e 0023     		movs	r3, #0
 729 0010 8360     		str	r3, [r0, #8]
 730 0012 0360     		str	r3, [r0]
  29:Queue.h       ****   
  30:Queue.h       ****     // This is important, see the enqueue 
  31:Queue.h       ****     queue->rear = capacity - 1; 
 731              		.loc 6 31 0
 732 0014 6B1E     		subs	r3, r5, #1
 733 0016 4360     		str	r3, [r0, #4]
  32:Queue.h       ****     queue->array = (int*)malloc( 
 734              		.loc 6 32 0
 735 0018 A800     		lsls	r0, r5, #2
 736              	.LVL71:
 737 001a FFF7FEFF 		bl	malloc
 738              	.LVL72:
 739 001e 2061     		str	r0, [r4, #16]
  33:Queue.h       ****         queue->capacity * sizeof(int)); 
  34:Queue.h       ****     return queue; 
  35:Queue.h       **** } 
 740              		.loc 6 35 0
 741 0020 2046     		mov	r0, r4
 742 0022 38BD     		pop	{r3, r4, r5, pc}
 743              		.cfi_endproc
 744              	.LFE79:
 745              		.size	createQueue, .-createQueue
 746              		.section	.text.isFull,"ax",%progbits
 747              		.align	2
 748              		.global	isFull
 749              		.thumb
ARM GAS  C:\Users\Gustav\AppData\Local\Temp\ccUC5mEw.s 			page 20


 750              		.thumb_func
 751              		.type	isFull, %function
 752              	isFull:
 753              	.LFB80:
  36:Queue.h       ****   
  37:Queue.h       **** // Queue is full when size becomes 
  38:Queue.h       **** // equal to the capacity 
  39:Queue.h       **** int isFull(struct Queue* queue) 
  40:Queue.h       **** { 
 754              		.loc 6 40 0
 755              		.cfi_startproc
 756              		@ args = 0, pretend = 0, frame = 0
 757              		@ frame_needed = 0, uses_anonymous_args = 0
 758              		@ link register save eliminated.
 759              	.LVL73:
  41:Queue.h       ****     return (queue->size == queue->capacity); 
 760              		.loc 6 41 0
 761 0000 8268     		ldr	r2, [r0, #8]
 762 0002 C068     		ldr	r0, [r0, #12]
 763              	.LVL74:
  42:Queue.h       **** } 
 764              		.loc 6 42 0
 765 0004 8242     		cmp	r2, r0
 766 0006 14BF     		ite	ne
 767 0008 0020     		movne	r0, #0
 768 000a 0120     		moveq	r0, #1
 769 000c 7047     		bx	lr
 770              		.cfi_endproc
 771              	.LFE80:
 772              		.size	isFull, .-isFull
 773 000e 00BF     		.section	.text.isEmpty,"ax",%progbits
 774              		.align	2
 775              		.global	isEmpty
 776              		.thumb
 777              		.thumb_func
 778              		.type	isEmpty, %function
 779              	isEmpty:
 780              	.LFB81:
  43:Queue.h       ****   
  44:Queue.h       **** // Queue is empty when size is 0 
  45:Queue.h       **** int isEmpty(struct Queue* queue) 
  46:Queue.h       **** { 
 781              		.loc 6 46 0
 782              		.cfi_startproc
 783              		@ args = 0, pretend = 0, frame = 0
 784              		@ frame_needed = 0, uses_anonymous_args = 0
 785              		@ link register save eliminated.
 786              	.LVL75:
  47:Queue.h       ****     return (queue->size == 0); 
 787              		.loc 6 47 0
 788 0000 8068     		ldr	r0, [r0, #8]
 789              	.LVL76:
  48:Queue.h       **** } 
 790              		.loc 6 48 0
 791 0002 B0FA80F0 		clz	r0, r0
 792 0006 4009     		lsrs	r0, r0, #5
 793 0008 7047     		bx	lr
ARM GAS  C:\Users\Gustav\AppData\Local\Temp\ccUC5mEw.s 			page 21


 794              		.cfi_endproc
 795              	.LFE81:
 796              		.size	isEmpty, .-isEmpty
 797 000a 00BF     		.section	.text.enqueue,"ax",%progbits
 798              		.align	2
 799              		.global	enqueue
 800              		.thumb
 801              		.thumb_func
 802              		.type	enqueue, %function
 803              	enqueue:
 804              	.LFB82:
  49:Queue.h       ****   
  50:Queue.h       **** // Function to add an item to the queue. 
  51:Queue.h       **** // It changes rear and size 
  52:Queue.h       **** void enqueue(struct Queue* queue, int item) 
  53:Queue.h       **** { 
 805              		.loc 6 53 0
 806              		.cfi_startproc
 807              		@ args = 0, pretend = 0, frame = 0
 808              		@ frame_needed = 0, uses_anonymous_args = 0
 809              	.LVL77:
 810 0000 38B5     		push	{r3, r4, r5, lr}
 811              		.cfi_def_cfa_offset 16
 812              		.cfi_offset 3, -16
 813              		.cfi_offset 4, -12
 814              		.cfi_offset 5, -8
 815              		.cfi_offset 14, -4
 816 0002 0446     		mov	r4, r0
 817 0004 0D46     		mov	r5, r1
  54:Queue.h       ****     if (isFull(queue)) 
 818              		.loc 6 54 0
 819 0006 FFF7FEFF 		bl	isFull
 820              	.LVL78:
 821 000a 68B9     		cbnz	r0, .L60
  55:Queue.h       ****         return; 
  56:Queue.h       ****     queue->rear = (queue->rear + 1) 
 822              		.loc 6 56 0
 823 000c 6368     		ldr	r3, [r4, #4]
 824 000e 0133     		adds	r3, r3, #1
  57:Queue.h       ****                   % queue->capacity; 
 825              		.loc 6 57 0
 826 0010 E168     		ldr	r1, [r4, #12]
 827 0012 B3FBF1F2 		udiv	r2, r3, r1
 828 0016 01FB1233 		mls	r3, r1, r2, r3
  56:Queue.h       ****                   % queue->capacity; 
 829              		.loc 6 56 0
 830 001a 6360     		str	r3, [r4, #4]
  58:Queue.h       ****     queue->array[queue->rear] = item; 
 831              		.loc 6 58 0
 832 001c 2269     		ldr	r2, [r4, #16]
 833 001e 42F82350 		str	r5, [r2, r3, lsl #2]
  59:Queue.h       ****     queue->size = queue->size + 1; 
 834              		.loc 6 59 0
 835 0022 A368     		ldr	r3, [r4, #8]
 836 0024 0133     		adds	r3, r3, #1
 837 0026 A360     		str	r3, [r4, #8]
 838              	.L60:
ARM GAS  C:\Users\Gustav\AppData\Local\Temp\ccUC5mEw.s 			page 22


 839 0028 38BD     		pop	{r3, r4, r5, pc}
 840              		.cfi_endproc
 841              	.LFE82:
 842              		.size	enqueue, .-enqueue
 843 002a 00BF     		.section	.text.isr_Measure_handler,"ax",%progbits
 844              		.align	2
 845              		.global	isr_Measure_handler
 846              		.thumb
 847              		.thumb_func
 848              		.type	isr_Measure_handler, %function
 849              	isr_Measure_handler:
 850              	.LFB86:
 851              		.file 7 "main.c"
   1:main.c        **** // ================================
   2:main.c        **** // Sorting_Controller.c
   3:main.c        **** // * Implemented on PSoC LP5, to control all hardware pressent 
   4:main.c        **** //      on the SortoMatic belt. Responsible for sorting packages
   5:main.c        **** //      and notifying the Database
   6:main.c        **** // Created by: GustavNK, rasmoller & Christian-Bach-johansen
   7:main.c        **** // GitHub: https://github.com/rasmoller/PRJ3-Group-13/tree/master/Code/PRJ3-FULLv0.3
   8:main.c        **** // ================================
   9:main.c        **** // Revisions log:
  10:main.c        **** // 20201009: Created and initial setup of TopDesign
  11:main.c        **** // 20201120: Started implementation og color sensor
  12:main.c        **** // 20201204: Redesign to better match PSoC C code
  13:main.c        **** // 20201220: Added Queue funktions
  14:main.c        **** // === TODO =======================
  15:main.c        **** // * Interrupts may disrput the flow
  16:main.c        **** // * 
  17:main.c        **** // ================================
  18:main.c        **** 
  19:main.c        **** #include "project.h"
  20:main.c        **** #include "Color_Sensor.h"
  21:main.c        **** #include "Weight_Sensor.h"
  22:main.c        **** #include "Actuator.h"
  23:main.c        **** #include "Box.h"
  24:main.c        **** #include "Database_Interface.h"
  25:main.c        **** #include "Belt_Motor.h"
  26:main.c        **** #include "Queue.h"
  27:main.c        **** #include <stdlib.h>
  28:main.c        **** 
  29:main.c        **** const int MY_DEBUG = 0;
  30:main.c        **** 
  31:main.c        **** unsigned long msgCount = 0;
  32:main.c        **** 
  33:main.c        **** struct Queue* msgQueue;
  34:main.c        **** struct Box box;
  35:main.c        **** 
  36:main.c        **** enum id
  37:main.c        **** {
  38:main.c        ****     MEASURE,
  39:main.c        ****     ACTUATOR,
  40:main.c        ****     RECEIVED_SETTINGS,
  41:main.c        **** };
  42:main.c        **** 
  43:main.c        **** void handleMsg(unsigned long id);
  44:main.c        **** 
ARM GAS  C:\Users\Gustav\AppData\Local\Temp\ccUC5mEw.s 			page 23


  45:main.c        **** CY_ISR_PROTO(isr_Measure_handler);
  46:main.c        **** CY_ISR_PROTO(isr_Actuator_handler);
  47:main.c        **** CY_ISR_PROTO(isr_rx_handler);
  48:main.c        **** 
  49:main.c        **** CY_ISR(isr_Measure_handler)
  50:main.c        **** {
 852              		.loc 7 50 0
 853              		.cfi_startproc
 854              		@ args = 0, pretend = 0, frame = 0
 855              		@ frame_needed = 0, uses_anonymous_args = 0
 856 0000 08B5     		push	{r3, lr}
 857              		.cfi_def_cfa_offset 8
 858              		.cfi_offset 3, -8
 859              		.cfi_offset 14, -4
  51:main.c        ****     msgCount++;
 860              		.loc 7 51 0
 861 0002 054A     		ldr	r2, .L65
 862 0004 5368     		ldr	r3, [r2, #4]
 863 0006 0133     		adds	r3, r3, #1
 864 0008 5360     		str	r3, [r2, #4]
  52:main.c        ****     enqueue(msgQueue, MEASURE);
 865              		.loc 7 52 0
 866 000a 0021     		movs	r1, #0
 867 000c 034B     		ldr	r3, .L65+4
 868 000e 1868     		ldr	r0, [r3]
 869 0010 FFF7FEFF 		bl	enqueue
 870              	.LVL79:
 871 0014 08BD     		pop	{r3, pc}
 872              	.L66:
 873 0016 00BF     		.align	2
 874              	.L65:
 875 0018 00000000 		.word	.LANCHOR0
 876 001c 00000000 		.word	msgQueue
 877              		.cfi_endproc
 878              	.LFE86:
 879              		.size	isr_Measure_handler, .-isr_Measure_handler
 880              		.section	.text.isr_Actuator_handler,"ax",%progbits
 881              		.align	2
 882              		.global	isr_Actuator_handler
 883              		.thumb
 884              		.thumb_func
 885              		.type	isr_Actuator_handler, %function
 886              	isr_Actuator_handler:
 887              	.LFB87:
  53:main.c        **** }
  54:main.c        **** 
  55:main.c        **** CY_ISR(isr_Actuator_handler)
  56:main.c        **** {
 888              		.loc 7 56 0
 889              		.cfi_startproc
 890              		@ args = 0, pretend = 0, frame = 0
 891              		@ frame_needed = 0, uses_anonymous_args = 0
 892 0000 08B5     		push	{r3, lr}
 893              		.cfi_def_cfa_offset 8
 894              		.cfi_offset 3, -8
 895              		.cfi_offset 14, -4
  57:main.c        ****     msgCount++;
ARM GAS  C:\Users\Gustav\AppData\Local\Temp\ccUC5mEw.s 			page 24


 896              		.loc 7 57 0
 897 0002 054A     		ldr	r2, .L69
 898 0004 5368     		ldr	r3, [r2, #4]
 899 0006 0133     		adds	r3, r3, #1
 900 0008 5360     		str	r3, [r2, #4]
  58:main.c        ****     enqueue(msgQueue, ACTUATOR);
 901              		.loc 7 58 0
 902 000a 0121     		movs	r1, #1
 903 000c 034B     		ldr	r3, .L69+4
 904 000e 1868     		ldr	r0, [r3]
 905 0010 FFF7FEFF 		bl	enqueue
 906              	.LVL80:
 907 0014 08BD     		pop	{r3, pc}
 908              	.L70:
 909 0016 00BF     		.align	2
 910              	.L69:
 911 0018 00000000 		.word	.LANCHOR0
 912 001c 00000000 		.word	msgQueue
 913              		.cfi_endproc
 914              	.LFE87:
 915              		.size	isr_Actuator_handler, .-isr_Actuator_handler
 916              		.section	.text.isr_rx_handler,"ax",%progbits
 917              		.align	2
 918              		.global	isr_rx_handler
 919              		.thumb
 920              		.thumb_func
 921              		.type	isr_rx_handler, %function
 922              	isr_rx_handler:
 923              	.LFB88:
  59:main.c        **** }
  60:main.c        **** 
  61:main.c        **** CY_ISR(isr_rx_handler)
  62:main.c        **** {
 924              		.loc 7 62 0
 925              		.cfi_startproc
 926              		@ args = 0, pretend = 0, frame = 0
 927              		@ frame_needed = 0, uses_anonymous_args = 0
 928 0000 08B5     		push	{r3, lr}
 929              		.cfi_def_cfa_offset 8
 930              		.cfi_offset 3, -8
 931              		.cfi_offset 14, -4
  63:main.c        ****     msgCount++;
 932              		.loc 7 63 0
 933 0002 054A     		ldr	r2, .L73
 934 0004 5368     		ldr	r3, [r2, #4]
 935 0006 0133     		adds	r3, r3, #1
 936 0008 5360     		str	r3, [r2, #4]
  64:main.c        ****     enqueue(msgQueue, RECEIVED_SETTINGS);
 937              		.loc 7 64 0
 938 000a 0221     		movs	r1, #2
 939 000c 034B     		ldr	r3, .L73+4
 940 000e 1868     		ldr	r0, [r3]
 941 0010 FFF7FEFF 		bl	enqueue
 942              	.LVL81:
 943 0014 08BD     		pop	{r3, pc}
 944              	.L74:
 945 0016 00BF     		.align	2
ARM GAS  C:\Users\Gustav\AppData\Local\Temp\ccUC5mEw.s 			page 25


 946              	.L73:
 947 0018 00000000 		.word	.LANCHOR0
 948 001c 00000000 		.word	msgQueue
 949              		.cfi_endproc
 950              	.LFE88:
 951              		.size	isr_rx_handler, .-isr_rx_handler
 952              		.section	.text.dequeue,"ax",%progbits
 953              		.align	2
 954              		.global	dequeue
 955              		.thumb
 956              		.thumb_func
 957              		.type	dequeue, %function
 958              	dequeue:
 959              	.LFB83:
  60:Queue.h       **** } 
  61:Queue.h       ****   
  62:Queue.h       **** // Function to remove an item from queue. 
  63:Queue.h       **** // It changes front and size 
  64:Queue.h       **** int dequeue(struct Queue* queue) 
  65:Queue.h       **** { 
 960              		.loc 6 65 0
 961              		.cfi_startproc
 962              		@ args = 0, pretend = 0, frame = 0
 963              		@ frame_needed = 0, uses_anonymous_args = 0
 964              	.LVL82:
 965 0000 10B5     		push	{r4, lr}
 966              		.cfi_def_cfa_offset 8
 967              		.cfi_offset 4, -8
 968              		.cfi_offset 14, -4
 969 0002 0446     		mov	r4, r0
  66:Queue.h       ****     if (isEmpty(queue)) 
 970              		.loc 6 66 0
 971 0004 FFF7FEFF 		bl	isEmpty
 972              	.LVL83:
 973 0008 70B9     		cbnz	r0, .L77
  67:Queue.h       ****         return INT_MIN; 
  68:Queue.h       ****     int item = queue->array[queue->front]; 
 974              		.loc 6 68 0
 975 000a 2269     		ldr	r2, [r4, #16]
 976 000c 2368     		ldr	r3, [r4]
 977 000e 52F82300 		ldr	r0, [r2, r3, lsl #2]
 978              	.LVL84:
  69:Queue.h       ****     queue->front = (queue->front + 1) 
 979              		.loc 6 69 0
 980 0012 0133     		adds	r3, r3, #1
  70:Queue.h       ****                    % queue->capacity; 
 981              		.loc 6 70 0
 982 0014 E168     		ldr	r1, [r4, #12]
 983 0016 B3FBF1F2 		udiv	r2, r3, r1
 984 001a 01FB1233 		mls	r3, r1, r2, r3
  69:Queue.h       ****     queue->front = (queue->front + 1) 
 985              		.loc 6 69 0
 986 001e 2360     		str	r3, [r4]
  71:Queue.h       ****     queue->size = queue->size - 1; 
 987              		.loc 6 71 0
 988 0020 A368     		ldr	r3, [r4, #8]
 989 0022 013B     		subs	r3, r3, #1
ARM GAS  C:\Users\Gustav\AppData\Local\Temp\ccUC5mEw.s 			page 26


 990 0024 A360     		str	r3, [r4, #8]
  72:Queue.h       ****     return item; 
 991              		.loc 6 72 0
 992 0026 10BD     		pop	{r4, pc}
 993              	.LVL85:
 994              	.L77:
  67:Queue.h       ****     int item = queue->array[queue->front]; 
 995              		.loc 6 67 0
 996 0028 4FF00040 		mov	r0, #-2147483648
  73:Queue.h       **** } 
 997              		.loc 6 73 0
 998 002c 10BD     		pop	{r4, pc}
 999              		.cfi_endproc
 1000              	.LFE83:
 1001              		.size	dequeue, .-dequeue
 1002 002e 00BF     		.section	.text.front,"ax",%progbits
 1003              		.align	2
 1004              		.global	front
 1005              		.thumb
 1006              		.thumb_func
 1007              		.type	front, %function
 1008              	front:
 1009              	.LFB84:
  74:Queue.h       ****   
  75:Queue.h       **** // Function to get front of queue 
  76:Queue.h       **** int front(struct Queue* queue) 
  77:Queue.h       **** { 
 1010              		.loc 6 77 0
 1011              		.cfi_startproc
 1012              		@ args = 0, pretend = 0, frame = 0
 1013              		@ frame_needed = 0, uses_anonymous_args = 0
 1014              	.LVL86:
 1015 0000 10B5     		push	{r4, lr}
 1016              		.cfi_def_cfa_offset 8
 1017              		.cfi_offset 4, -8
 1018              		.cfi_offset 14, -4
 1019 0002 0446     		mov	r4, r0
  78:Queue.h       ****     if (isEmpty(queue)) 
 1020              		.loc 6 78 0
 1021 0004 FFF7FEFF 		bl	isEmpty
 1022              	.LVL87:
 1023 0008 20B9     		cbnz	r0, .L81
  79:Queue.h       ****         return INT_MIN; 
  80:Queue.h       ****     return queue->array[queue->front]; 
 1024              		.loc 6 80 0
 1025 000a 2369     		ldr	r3, [r4, #16]
 1026 000c 2268     		ldr	r2, [r4]
 1027 000e 53F82200 		ldr	r0, [r3, r2, lsl #2]
 1028 0012 10BD     		pop	{r4, pc}
 1029              	.LVL88:
 1030              	.L81:
  79:Queue.h       ****         return INT_MIN; 
 1031              		.loc 6 79 0
 1032 0014 4FF00040 		mov	r0, #-2147483648
  81:Queue.h       **** } 
 1033              		.loc 6 81 0
 1034 0018 10BD     		pop	{r4, pc}
ARM GAS  C:\Users\Gustav\AppData\Local\Temp\ccUC5mEw.s 			page 27


 1035              		.cfi_endproc
 1036              	.LFE84:
 1037              		.size	front, .-front
 1038 001a 00BF     		.section	.text.rear,"ax",%progbits
 1039              		.align	2
 1040              		.global	rear
 1041              		.thumb
 1042              		.thumb_func
 1043              		.type	rear, %function
 1044              	rear:
 1045              	.LFB85:
  82:Queue.h       ****   
  83:Queue.h       **** // Function to get rear of queue 
  84:Queue.h       **** int rear(struct Queue* queue) 
  85:Queue.h       **** { 
 1046              		.loc 6 85 0
 1047              		.cfi_startproc
 1048              		@ args = 0, pretend = 0, frame = 0
 1049              		@ frame_needed = 0, uses_anonymous_args = 0
 1050              	.LVL89:
 1051 0000 10B5     		push	{r4, lr}
 1052              		.cfi_def_cfa_offset 8
 1053              		.cfi_offset 4, -8
 1054              		.cfi_offset 14, -4
 1055 0002 0446     		mov	r4, r0
  86:Queue.h       ****     if (isEmpty(queue)) 
 1056              		.loc 6 86 0
 1057 0004 FFF7FEFF 		bl	isEmpty
 1058              	.LVL90:
 1059 0008 20B9     		cbnz	r0, .L85
  87:Queue.h       ****         return INT_MIN; 
  88:Queue.h       ****     return queue->array[queue->rear]; 
 1060              		.loc 6 88 0
 1061 000a 2369     		ldr	r3, [r4, #16]
 1062 000c 6268     		ldr	r2, [r4, #4]
 1063 000e 53F82200 		ldr	r0, [r3, r2, lsl #2]
 1064 0012 10BD     		pop	{r4, pc}
 1065              	.LVL91:
 1066              	.L85:
  87:Queue.h       ****         return INT_MIN; 
 1067              		.loc 6 87 0
 1068 0014 4FF00040 		mov	r0, #-2147483648
  89:Queue.h       **** }...
 1069              		.loc 6 89 0
 1070 0018 10BD     		pop	{r4, pc}
 1071              		.cfi_endproc
 1072              	.LFE85:
 1073              		.size	rear, .-rear
 1074 001a 00BF     		.section	.text.debug,"ax",%progbits
 1075              		.align	2
 1076              		.global	debug
 1077              		.thumb
 1078              		.thumb_func
 1079              		.type	debug, %function
 1080              	debug:
 1081              	.LFB89:
  65:main.c        **** }
ARM GAS  C:\Users\Gustav\AppData\Local\Temp\ccUC5mEw.s 			page 28


  66:main.c        **** 
  67:main.c        **** void debug(char * buf){if(MY_DEBUG) RPI_UART_PutString(buf);}
 1082              		.loc 7 67 0
 1083              		.cfi_startproc
 1084              		@ args = 0, pretend = 0, frame = 0
 1085              		@ frame_needed = 0, uses_anonymous_args = 0
 1086              		@ link register save eliminated.
 1087              	.LVL92:
 1088 0000 7047     		bx	lr
 1089              		.cfi_endproc
 1090              	.LFE89:
 1091              		.size	debug, .-debug
 1092 0002 00BF     		.section	.text.handleMsg,"ax",%progbits
 1093              		.align	2
 1094              		.global	handleMsg
 1095              		.thumb
 1096              		.thumb_func
 1097              		.type	handleMsg, %function
 1098              	handleMsg:
 1099              	.LFB91:
  68:main.c        **** 
  69:main.c        **** int main(void)
  70:main.c        **** {
  71:main.c        ****     // Setup interrupts
  72:main.c        ****     CyGlobalIntEnable;
  73:main.c        ****     isr_Actuator_StartEx(isr_Actuator_handler);
  74:main.c        ****     isr_Measure_StartEx(isr_Measure_handler);
  75:main.c        ****     isr_rx_StartEx(isr_rx_handler);
  76:main.c        ****     
  77:main.c        ****     // Create C Queue
  78:main.c        ****     msgQueue = createQueue(10);
  79:main.c        ****     
  80:main.c        ****     // Initiate internal hardware
  81:main.c        ****     Color_Sensor_Start();
  82:main.c        ****     Weight_Sensor_Start();
  83:main.c        ****     Database_Interface_Start();
  84:main.c        ****     
  85:main.c        ****     for(;;)
  86:main.c        ****     {        
  87:main.c        ****         if(msgCount)    
  88:main.c        ****         {
  89:main.c        ****             msgCount--;
  90:main.c        ****             int id = dequeue(msgQueue);
  91:main.c        ****             handleMsg(id);
  92:main.c        ****             debug("Interrupt handled");
  93:main.c        ****         }
  94:main.c        ****     }
  95:main.c        **** }
  96:main.c        **** 
  97:main.c        **** // *********************
  98:main.c        **** // * Takes an id and decides an action,
  99:main.c        **** //      based on the received id
 100:main.c        **** // *********************
 101:main.c        **** void handleMsg(unsigned long id)
 102:main.c        **** {
 1100              		.loc 7 102 0
 1101              		.cfi_startproc
ARM GAS  C:\Users\Gustav\AppData\Local\Temp\ccUC5mEw.s 			page 29


 1102              		@ args = 0, pretend = 0, frame = 104
 1103              		@ frame_needed = 0, uses_anonymous_args = 0
 1104              	.LVL93:
 1105              		.loc 7 102 0
 1106 0000 30B5     		push	{r4, r5, lr}
 1107              		.cfi_def_cfa_offset 12
 1108              		.cfi_offset 4, -12
 1109              		.cfi_offset 5, -8
 1110              		.cfi_offset 14, -4
 1111 0002 9DB0     		sub	sp, sp, #116
 1112              		.cfi_def_cfa_offset 128
 103:main.c        ****     switch(id)
 1113              		.loc 7 103 0
 1114 0004 10B1     		cbz	r0, .L90
 1115 0006 0128     		cmp	r0, #1
 1116 0008 1CD0     		beq	.L91
 1117 000a 2AE0     		b	.L88
 1118              	.L90:
 1119              	.LBB4:
 104:main.c        ****     {
 105:main.c        ****     // Get info on box and send to UART
 106:main.c        ****     case MEASURE : 
 107:main.c        ****     {
 108:main.c        ****         struct Color c;
 109:main.c        ****         Color_Sensor_Read_Color(&c); // This only returns the freq. But we need an RGB value
 1120              		.loc 7 109 0
 1121 000c 02A8     		add	r0, sp, #8
 1122              	.LVL94:
 1123 000e FFF7FEFF 		bl	Color_Sensor_Read_Color
 1124              	.LVL95:
 110:main.c        ****         int weight = Weight_Sensor_Read();
 1125              		.loc 7 110 0
 1126 0012 FFF7FEFF 		bl	Weight_Sensor_Read
 1127              	.LVL96:
 111:main.c        ****         int sort = 1; //decide to sort
 112:main.c        ****         
 113:main.c        ****         // Put color, weight & sort into Data struct 
 114:main.c        ****         box.color[0] = c.red;
 1128              		.loc 7 114 0
 1129 0016 9DF80820 		ldrb	r2, [sp, #8]	@ zero_extendqisi2
 1130 001a 134C     		ldr	r4, .L93
 1131 001c 6260     		str	r2, [r4, #4]
 115:main.c        ****         box.color[1] = c.green;
 1132              		.loc 7 115 0
 1133 001e 9DF80930 		ldrb	r3, [sp, #9]	@ zero_extendqisi2
 1134 0022 A360     		str	r3, [r4, #8]
 116:main.c        ****         box.color[2] = c.blue;
 1135              		.loc 7 116 0
 1136 0024 9DF80A10 		ldrb	r1, [sp, #10]	@ zero_extendqisi2
 1137 0028 E160     		str	r1, [r4, #12]
 117:main.c        ****         box.weight = weight;
 1138              		.loc 7 117 0
 1139 002a 2061     		str	r0, [r4, #16]
 118:main.c        ****         box.sort = sort;
 1140              		.loc 7 118 0
 1141 002c 0125     		movs	r5, #1
 1142 002e 6561     		str	r5, [r4, #20]
ARM GAS  C:\Users\Gustav\AppData\Local\Temp\ccUC5mEw.s 			page 30


 119:main.c        ****         
 120:main.c        ****         // DEBUG
 121:main.c        ****         char buf[100];
 122:main.c        ****         sprintf(buf, "Red %i, Green %i, Blue %i, weight %i\n", box.color[0], box.color[1], box.colo
 1143              		.loc 7 122 0
 1144 0030 0190     		str	r0, [sp, #4]
 1145 0032 0091     		str	r1, [sp]
 1146 0034 0D49     		ldr	r1, .L93+4
 1147 0036 03A8     		add	r0, sp, #12
 1148              	.LVL97:
 1149 0038 FFF7FEFF 		bl	sprintf
 1150              	.LVL98:
 123:main.c        ****         debug(buf);
 124:main.c        ****         
 125:main.c        ****         Database_Interface_Send(&box);
 1151              		.loc 7 125 0
 1152 003c 2046     		mov	r0, r4
 1153 003e FFF7FEFF 		bl	Database_Interface_Send
 1154              	.LVL99:
 1155 0042 0EE0     		b	.L88
 1156              	.LVL100:
 1157              	.L91:
 1158              	.LBE4:
 126:main.c        ****         break;
 127:main.c        ****     }
 128:main.c        ****     case ACTUATOR : // Decides wether to sort
 129:main.c        ****         if(box.sort)
 1159              		.loc 7 129 0
 1160 0044 084B     		ldr	r3, .L93
 1161 0046 5B69     		ldr	r3, [r3, #20]
 1162 0048 5BB1     		cbz	r3, .L88
 130:main.c        ****         {
 131:main.c        ****             // TODO Base extension on actuation length, not time
 132:main.c        ****             Actuator_Extend();
 1163              		.loc 7 132 0
 1164 004a FFF7FEFF 		bl	Actuator_Extend
 1165              	.LVL101:
 133:main.c        ****             CyDelay(2000); 
 1166              		.loc 7 133 0
 1167 004e 4FF4FA60 		mov	r0, #2000
 1168 0052 FFF7FEFF 		bl	CyDelay
 1169              	.LVL102:
 134:main.c        ****             Actuator_Retract();
 1170              		.loc 7 134 0
 1171 0056 FFF7FEFF 		bl	Actuator_Retract
 1172              	.LVL103:
 135:main.c        ****             CyDelay(2000);
 1173              		.loc 7 135 0
 1174 005a 4FF4FA60 		mov	r0, #2000
 1175 005e FFF7FEFF 		bl	CyDelay
 1176              	.LVL104:
 1177              	.L88:
 136:main.c        ****         }
 137:main.c        ****         break;
 138:main.c        ****     case RECEIVED_SETTINGS : // Receive and set new settings from Data Server
 139:main.c        ****     {
 140:main.c        ****         // TODO: Setup new settings
ARM GAS  C:\Users\Gustav\AppData\Local\Temp\ccUC5mEw.s 			page 31


 141:main.c        ****         // * Receive Setings for Database_Interface
 142:main.c        ****         // * Set new settings
 143:main.c        ****         break;   
 144:main.c        ****     }
 145:main.c        ****     default : break;
 146:main.c        ****     }
 147:main.c        **** }
 1178              		.loc 7 147 0
 1179 0062 1DB0     		add	sp, sp, #116
 1180              		.cfi_def_cfa_offset 12
 1181              		@ sp needed
 1182 0064 30BD     		pop	{r4, r5, pc}
 1183              	.L94:
 1184 0066 00BF     		.align	2
 1185              	.L93:
 1186 0068 00000000 		.word	box
 1187 006c 10000000 		.word	.LC1
 1188              		.cfi_endproc
 1189              	.LFE91:
 1190              		.size	handleMsg, .-handleMsg
 1191              		.section	.text.main,"ax",%progbits
 1192              		.align	2
 1193              		.global	main
 1194              		.thumb
 1195              		.thumb_func
 1196              		.type	main, %function
 1197              	main:
 1198              	.LFB90:
  70:main.c        ****     // Setup interrupts
 1199              		.loc 7 70 0
 1200              		.cfi_startproc
 1201              		@ args = 0, pretend = 0, frame = 0
 1202              		@ frame_needed = 0, uses_anonymous_args = 0
 1203 0000 08B5     		push	{r3, lr}
 1204              		.cfi_def_cfa_offset 8
 1205              		.cfi_offset 3, -8
 1206              		.cfi_offset 14, -4
  72:main.c        ****     isr_Actuator_StartEx(isr_Actuator_handler);
 1207              		.loc 7 72 0
 1208              		.syntax unified
 1209              	@ 72 "main.c" 1
 1210 0002 62B6     		CPSIE   i
 1211              	@ 0 "" 2
  73:main.c        ****     isr_Measure_StartEx(isr_Measure_handler);
 1212              		.loc 7 73 0
 1213              		.thumb
 1214              		.syntax unified
 1215 0004 1048     		ldr	r0, .L99
 1216 0006 FFF7FEFF 		bl	isr_Actuator_StartEx
 1217              	.LVL105:
  74:main.c        ****     isr_rx_StartEx(isr_rx_handler);
 1218              		.loc 7 74 0
 1219 000a 1048     		ldr	r0, .L99+4
 1220 000c FFF7FEFF 		bl	isr_Measure_StartEx
 1221              	.LVL106:
  75:main.c        ****     
 1222              		.loc 7 75 0
ARM GAS  C:\Users\Gustav\AppData\Local\Temp\ccUC5mEw.s 			page 32


 1223 0010 0F48     		ldr	r0, .L99+8
 1224 0012 FFF7FEFF 		bl	isr_rx_StartEx
 1225              	.LVL107:
  78:main.c        ****     
 1226              		.loc 7 78 0
 1227 0016 0A20     		movs	r0, #10
 1228 0018 FFF7FEFF 		bl	createQueue
 1229              	.LVL108:
 1230 001c 0D4B     		ldr	r3, .L99+12
 1231 001e 1860     		str	r0, [r3]
  81:main.c        ****     Weight_Sensor_Start();
 1232              		.loc 7 81 0
 1233 0020 FFF7FEFF 		bl	Color_Sensor_Start
 1234              	.LVL109:
  82:main.c        ****     Database_Interface_Start();
 1235              		.loc 7 82 0
 1236 0024 FFF7FEFF 		bl	Weight_Sensor_Start
 1237              	.LVL110:
  83:main.c        ****     
 1238              		.loc 7 83 0
 1239 0028 FFF7FEFF 		bl	Database_Interface_Start
 1240              	.LVL111:
 1241              	.L96:
  87:main.c        ****         {
 1242              		.loc 7 87 0
 1243 002c 0A4B     		ldr	r3, .L99+16
 1244 002e 5B68     		ldr	r3, [r3, #4]
 1245 0030 002B     		cmp	r3, #0
 1246 0032 FBD0     		beq	.L96
 1247              	.LBB5:
  89:main.c        ****             int id = dequeue(msgQueue);
 1248              		.loc 7 89 0
 1249 0034 013B     		subs	r3, r3, #1
 1250 0036 084A     		ldr	r2, .L99+16
 1251 0038 5360     		str	r3, [r2, #4]
  90:main.c        ****             handleMsg(id);
 1252              		.loc 7 90 0
 1253 003a 064B     		ldr	r3, .L99+12
 1254 003c 1868     		ldr	r0, [r3]
 1255 003e FFF7FEFF 		bl	dequeue
 1256              	.LVL112:
  91:main.c        ****             debug("Interrupt handled");
 1257              		.loc 7 91 0
 1258 0042 FFF7FEFF 		bl	handleMsg
 1259              	.LVL113:
 1260 0046 F1E7     		b	.L96
 1261              	.L100:
 1262              		.align	2
 1263              	.L99:
 1264 0048 00000000 		.word	isr_Actuator_handler
 1265 004c 00000000 		.word	isr_Measure_handler
 1266 0050 00000000 		.word	isr_rx_handler
 1267 0054 00000000 		.word	msgQueue
 1268 0058 00000000 		.word	.LANCHOR0
 1269              	.LBE5:
 1270              		.cfi_endproc
 1271              	.LFE90:
ARM GAS  C:\Users\Gustav\AppData\Local\Temp\ccUC5mEw.s 			page 33


 1272              		.size	main, .-main
 1273              		.comm	box,24,4
 1274              		.comm	msgQueue,4,4
 1275              		.global	msgCount
 1276              		.global	MY_DEBUG
 1277              		.comm	BELT_SPEED_NORMAL,4,4
 1278              		.global	BELT_SPEED_OFF
 1279              		.comm	BELT_SPEED_MAX,2,2
 1280              		.global	ACTUATOR_DELAY
 1281              		.global	gram_per_adc
 1282              		.global	offset_err
 1283              		.comm	linearity,2,2
 1284              		.comm	sensorColor,6,4
 1285              		.comm	buf,256,4
 1286              		.global	freqReady
 1287              		.global	freq
 1288              		.section	.rodata
 1289              		.align	2
 1290              		.type	MY_DEBUG, %object
 1291              		.size	MY_DEBUG, 4
 1292              	MY_DEBUG:
 1293 0000 00000000 		.space	4
 1294              		.type	BELT_SPEED_OFF, %object
 1295              		.size	BELT_SPEED_OFF, 2
 1296              	BELT_SPEED_OFF:
 1297 0004 0000     		.space	2
 1298              		.type	ACTUATOR_DELAY, %object
 1299              		.size	ACTUATOR_DELAY, 2
 1300              	ACTUATOR_DELAY:
 1301 0006 B80B     		.short	3000
 1302              		.type	gram_per_adc, %object
 1303              		.size	gram_per_adc, 4
 1304              	gram_per_adc:
 1305 0008 0000803F 		.word	1065353216
 1306              		.type	offset_err, %object
 1307              		.size	offset_err, 4
 1308              	offset_err:
 1309 000c 00000000 		.space	4
 1310              		.section	.rodata.str1.4,"aMS",%progbits,1
 1311              		.align	2
 1312              	.LC0:
 1313 0000 25692025 		.ascii	"%i %i %i %i %i\000"
 1313      69202569 
 1313      20256920 
 1313      256900
 1314 000f 00       		.space	1
 1315              	.LC1:
 1316 0010 52656420 		.ascii	"Red %i, Green %i, Blue %i, weight %i\012\000"
 1316      25692C20 
 1316      47726565 
 1316      6E202569 
 1316      2C20426C 
 1317              		.bss
 1318              		.align	2
 1319              		.set	.LANCHOR0,. + 0
 1320              		.type	freq, %object
 1321              		.size	freq, 2
ARM GAS  C:\Users\Gustav\AppData\Local\Temp\ccUC5mEw.s 			page 34


 1322              	freq:
 1323 0000 0000     		.space	2
 1324              		.type	freqReady, %object
 1325              		.size	freqReady, 1
 1326              	freqReady:
 1327 0002 00       		.space	1
 1328 0003 00       		.space	1
 1329              		.type	msgCount, %object
 1330              		.size	msgCount, 4
 1331              	msgCount:
 1332 0004 00000000 		.space	4
 1333              		.text
 1334              	.Letext0:
 1335              		.file 8 "e:\\programmer\\cypres\\psoc creator\\4.3\\psoc creator\\import\\gnu\\arm\\5.4.1\\arm-non
 1336              		.file 9 "e:\\programmer\\cypres\\psoc creator\\4.3\\psoc creator\\import\\gnu\\arm\\5.4.1\\arm-non
 1337              		.file 10 "Generated_Source\\PSoC5/cytypes.h"
 1338              		.file 11 "Box.h"
 1339              		.file 12 "Generated_Source\\PSoC5/core_cm3.h"
 1340              		.file 13 "Generated_Source\\PSoC5/Color_Counter.h"
 1341              		.file 14 "Generated_Source\\PSoC5/isr_Color.h"
 1342              		.file 15 "Generated_Source\\PSoC5/Color_Reset.h"
 1343              		.file 16 "Generated_Source\\PSoC5/Color_Pin_Freq_Select.h"
 1344              		.file 17 "Generated_Source\\PSoC5/CyLib.h"
 1345              		.file 18 "Generated_Source\\PSoC5/Color_Pin_LED.h"
 1346              		.file 19 "Generated_Source\\PSoC5/Color_PWM.h"
 1347              		.file 20 "Generated_Source\\PSoC5/Color_Pin_Color_Select.h"
 1348              		.file 21 "Generated_Source\\PSoC5/Weight_ADC.h"
 1349              		.file 22 "Generated_Source\\PSoC5/Actuator_Dir.h"
 1350              		.file 23 "Generated_Source\\PSoC5/Actuator_PWM.h"
 1351              		.file 24 "Generated_Source\\PSoC5/RPI_UART.h"
 1352              		.file 25 "e:\\programmer\\cypres\\psoc creator\\4.3\\psoc creator\\import\\gnu\\arm\\5.4.1\\arm-no
 1353              		.file 26 "Generated_Source\\PSoC5/Motor_PWM.h"
 1354              		.file 27 "e:\\programmer\\cypres\\psoc creator\\4.3\\psoc creator\\import\\gnu\\arm\\5.4.1\\arm-no
 1355              		.file 28 "Generated_Source\\PSoC5/isr_Actuator.h"
 1356              		.file 29 "Generated_Source\\PSoC5/isr_Measure.h"
 1357              		.file 30 "Generated_Source\\PSoC5/isr_rx.h"